target datalayout = "e-m:e-p270:32:32-p271:32:32-p272:64:64-i64:64-i128:128-f80:128-n8:16:32:64-S128"
target triple = "x86_64-pc-linux-gnu"

%struct.CatalogId = type { i32, i32 }
%struct._dumpableObject = type { i32, %struct.CatalogId, i32, ptr, ptr, i32, i32, i32, i8, i8, ptr, i32, i32 }
%struct.PQExpBufferData = type { ptr, i64, i64 }
%struct._extensionInfo = type { %struct._dumpableObject, ptr, i8, ptr, ptr, ptr }

@.str.515 = private unnamed_addr constant [120 x i8] c"SELECT classid, objid, refobjid FROM pg_depend WHERE refclassid = 'pg_extension'::regclass AND deptype = 'e' ORDER BY 3\00", align 1
@.str.516 = private unnamed_addr constant [8 x i8] c"classid\00", align 1
@.str.517 = private unnamed_addr constant [6 x i8] c"objid\00", align 1
@.str.518 = private unnamed_addr constant [9 x i8] c"refobjid\00", align 1
@.str.519 = private unnamed_addr constant [39 x i8] c"could not find referenced extension %u\00", align 1

; Function Attrs: nounwind uwtable
define dso_local void @getExtensionMembership(ptr noundef %0, ptr noundef %1, i32 noundef %2) #0 {
  %4 = alloca ptr, align 8
  %5 = alloca ptr, align 8
  %6 = alloca i32, align 4
  %7 = alloca ptr, align 8
  %8 = alloca ptr, align 8
  %9 = alloca i32, align 4
  %10 = alloca i32, align 4
  %11 = alloca i32, align 4
  %12 = alloca i32, align 4
  %13 = alloca i32, align 4
  %14 = alloca ptr, align 8
  %15 = alloca i32, align 4
  %16 = alloca %struct.CatalogId, align 4
  %17 = alloca i32, align 4
  store ptr %0, ptr %4, align 8
  store ptr %1, ptr %5, align 8
  store i32 %2, ptr %6, align 4
  call void @llvm.lifetime.start.p0(i64 8, ptr %7) #10
  call void @llvm.lifetime.start.p0(i64 8, ptr %8) #10
  call void @llvm.lifetime.start.p0(i64 4, ptr %9) #10
  call void @llvm.lifetime.start.p0(i64 4, ptr %10) #10
  call void @llvm.lifetime.start.p0(i64 4, ptr %11) #10
  call void @llvm.lifetime.start.p0(i64 4, ptr %12) #10
  call void @llvm.lifetime.start.p0(i64 4, ptr %13) #10
  call void @llvm.lifetime.start.p0(i64 8, ptr %14) #10
  %18 = load i32, ptr %6, align 4
  %19 = icmp eq i32 %18, 0
  br i1 %19, label %20, label %21

20:                                               ; preds = %3
  store i32 1, ptr %15, align 4
  br label %92

21:                                               ; preds = %3
  %22 = call ptr @createPQExpBuffer()
  store ptr %22, ptr %7, align 8
  %23 = load ptr, ptr %7, align 8
  call void @appendPQExpBufferStr(ptr noundef %23, ptr noundef @.str.515)
  %24 = load ptr, ptr %4, align 8
  %25 = load ptr, ptr %7, align 8
  %26 = getelementptr inbounds nuw %struct.PQExpBufferData, ptr %25, i32 0, i32 0
  %27 = load ptr, ptr %26, align 8
  %28 = call ptr @ExecuteSqlQuery(ptr noundef %24, ptr noundef %27, i32 noundef 2)
  store ptr %28, ptr %8, align 8
  %29 = load ptr, ptr %8, align 8
  %30 = call i32 @PQntuples(ptr noundef %29)
  store i32 %30, ptr %9, align 4
  %31 = load ptr, ptr %8, align 8
  %32 = call i32 @PQfnumber(ptr noundef %31, ptr noundef @.str.516)
  store i32 %32, ptr %11, align 4
  %33 = load ptr, ptr %8, align 8
  %34 = call i32 @PQfnumber(ptr noundef %33, ptr noundef @.str.517)
  store i32 %34, ptr %12, align 4
  %35 = load ptr, ptr %8, align 8
  %36 = call i32 @PQfnumber(ptr noundef %35, ptr noundef @.str.518)
  store i32 %36, ptr %13, align 4
  store ptr null, ptr %14, align 8
  store i32 0, ptr %10, align 4
  br label %37

37:                                               ; preds = %86, %21
  %38 = load i32, ptr %10, align 4
  %39 = load i32, ptr %9, align 4
  %40 = icmp slt i32 %38, %39
  br i1 %40, label %41, label %89

41:                                               ; preds = %37
  call void @llvm.lifetime.start.p0(i64 8, ptr %16) #10
  call void @llvm.lifetime.start.p0(i64 4, ptr %17) #10
  %42 = load ptr, ptr %8, align 8
  %43 = load i32, ptr %10, align 4
  %44 = load i32, ptr %11, align 4
  %45 = call ptr @PQgetvalue(ptr noundef %42, i32 noundef %43, i32 noundef %44)
  %46 = call i64 @strtoul(ptr noundef %45, ptr noundef null, i32 noundef 10) #10
  %47 = trunc i64 %46 to i32
  %48 = getelementptr inbounds nuw %struct.CatalogId, ptr %16, i32 0, i32 0
  store i32 %47, ptr %48, align 4
  %49 = load ptr, ptr %8, align 8
  %50 = load i32, ptr %10, align 4
  %51 = load i32, ptr %12, align 4
  %52 = call ptr @PQgetvalue(ptr noundef %49, i32 noundef %50, i32 noundef %51)
  %53 = call i64 @strtoul(ptr noundef %52, ptr noundef null, i32 noundef 10) #10
  %54 = trunc i64 %53 to i32
  %55 = getelementptr inbounds nuw %struct.CatalogId, ptr %16, i32 0, i32 1
  store i32 %54, ptr %55, align 4
  %56 = load ptr, ptr %8, align 8
  %57 = load i32, ptr %10, align 4
  %58 = load i32, ptr %13, align 4
  %59 = call ptr @PQgetvalue(ptr noundef %56, i32 noundef %57, i32 noundef %58)
  %60 = call i64 @strtoul(ptr noundef %59, ptr noundef null, i32 noundef 10) #10
  %61 = trunc i64 %60 to i32
  store i32 %61, ptr %17, align 4
  %62 = load ptr, ptr %14, align 8
  %63 = icmp eq ptr %62, null
  br i1 %63, label %72, label %64

64:                                               ; preds = %41
  %65 = load ptr, ptr %14, align 8
  %66 = getelementptr inbounds nuw %struct._extensionInfo, ptr %65, i32 0, i32 0
  %67 = getelementptr inbounds nuw %struct._dumpableObject, ptr %66, i32 0, i32 1
  %68 = getelementptr inbounds nuw %struct.CatalogId, ptr %67, i32 0, i32 1
  %69 = load i32, ptr %68, align 4
  %70 = load i32, ptr %17, align 4
  %71 = icmp ne i32 %69, %70
  br i1 %71, label %72, label %75

72:                                               ; preds = %64, %41
  %73 = load i32, ptr %17, align 4
  %74 = call ptr @findExtensionByOid(i32 noundef %73)
  store ptr %74, ptr %14, align 8
  br label %75

75:                                               ; preds = %72, %64
  %76 = load ptr, ptr %14, align 8
  %77 = icmp eq ptr %76, null
  br i1 %77, label %78, label %80

78:                                               ; preds = %75
  %79 = load i32, ptr %17, align 4
  call void (i32, i32, ptr, ...) @pg_log_generic(i32 noundef 3, i32 noundef 0, ptr noundef @.str.519, i32 noundef %79)
  store i32 4, ptr %15, align 4
  br label %83

80:                                               ; preds = %75
  %81 = load ptr, ptr %14, align 8
  %82 = load i64, ptr %16, align 4
  call void @recordExtensionMembership(i64 %82, ptr noundef %81)
  store i32 0, ptr %15, align 4
  br label %83

83:                                               ; preds = %80, %78
  call void @llvm.lifetime.end.p0(i64 4, ptr %17) #10
  call void @llvm.lifetime.end.p0(i64 8, ptr %16) #10
  %84 = load i32, ptr %15, align 4
  switch i32 %84, label %95 [
    i32 0, label %85
    i32 4, label %86
  ]

85:                                               ; preds = %83
  br label %86

86:                                               ; preds = %85, %83
  %87 = load i32, ptr %10, align 4
  %88 = add i32 %87, 1
  store i32 %88, ptr %10, align 4
  br label %37, !llvm.loop !100

89:                                               ; preds = %37
  %90 = load ptr, ptr %8, align 8
  call void @PQclear(ptr noundef %90)
  %91 = load ptr, ptr %7, align 8
  call void @destroyPQExpBuffer(ptr noundef %91)
  store i32 0, ptr %15, align 4
  br label %92

92:                                               ; preds = %89, %20
  call void @llvm.lifetime.end.p0(i64 8, ptr %14) #10
  call void @llvm.lifetime.end.p0(i64 4, ptr %13) #10
  call void @llvm.lifetime.end.p0(i64 4, ptr %12) #10
  call void @llvm.lifetime.end.p0(i64 4, ptr %11) #10
  call void @llvm.lifetime.end.p0(i64 4, ptr %10) #10
  call void @llvm.lifetime.end.p0(i64 4, ptr %9) #10
  call void @llvm.lifetime.end.p0(i64 8, ptr %8) #10
  call void @llvm.lifetime.end.p0(i64 8, ptr %7) #10
  %93 = load i32, ptr %15, align 4
  switch i32 %93, label %95 [
    i32 0, label %94
    i32 1, label %94
  ]

94:                                               ; preds = %92, %92
  ret void

95:                                               ; preds = %92, %83
  unreachable
}