; Function Attrs: nounwind uwtable
define dso_local void @getExtensionMembership(ptr noundef %0, ptr noundef readnone captures(none) %1, i32 noundef %2) local_unnamed_addr #5 {
  %4 = icmp eq i32 %2, 0
  br i1 %4, label %31, label %5

5:                                                ; preds = %3
  %6 = tail call ptr @createPQExpBuffer() #14
  tail call void @appendPQExpBufferStr(ptr noundef %6, ptr noundef nonnull @.str.515) #14
  %7 = load ptr, ptr %6, align 8
  %8 = tail call ptr @ExecuteSqlQuery(ptr noundef %0, ptr noundef %7, i32 noundef 2) #14
  %9 = tail call i32 @PQntuples(ptr noundef %8) #14
  %10 = tail call i32 @PQfnumber(ptr noundef %8, ptr noundef nonnull @.str.516) #14
  %11 = tail call i32 @PQfnumber(ptr noundef %8, ptr noundef nonnull @.str.517) #14
  %12 = tail call i32 @PQfnumber(ptr noundef %8, ptr noundef nonnull @.str.518) #14
  %13 = icmp sgt i32 %9, 0
  br i1 %13, label %.lr.ph, label %._crit_edge

.lr.ph:                                           ; preds = %5, %29
  %.033 = phi i32 [ %30, %29 ], [ 0, %5 ]
  %.02832 = phi ptr [ %.130, %29 ], [ null, %5 ]
  %14 = tail call ptr @PQgetvalue(ptr noundef %8, i32 noundef %.033, i32 noundef %10) #14
  %15 = tail call i64 @strtoul(ptr noundef captures(none) %14, ptr noundef null, i32 noundef 10) #14
  %16 = tail call ptr @PQgetvalue(ptr noundef %8, i32 noundef %.033, i32 noundef %11) #14
  %17 = tail call i64 @strtoul(ptr noundef captures(none) %16, ptr noundef null, i32 noundef 10) #14
  %18 = tail call ptr @PQgetvalue(ptr noundef %8, i32 noundef %.033, i32 noundef %12) #14
  %19 = tail call i64 @strtoul(ptr noundef captures(none) %18, ptr noundef null, i32 noundef 10) #14
  %20 = trunc i64 %19 to i32
  %21 = icmp eq ptr %.02832, null
  br i1 %21, label %25, label %22

22:                                               ; preds = %.lr.ph
  %23 = getelementptr inbounds nuw i8, ptr %.02832, i64 8
  %24 = load i32, ptr %23, align 4
  %.not = icmp eq i32 %24, %20
  br i1 %.not, label %.thread, label %25

25:                                               ; preds = %.lr.ph, %22
  %26 = tail call ptr @findExtensionByOid(i32 noundef %20) #14
  %27 = icmp eq ptr %26, null
  br i1 %27, label %28, label %.thread

28:                                               ; preds = %25
  tail call void (i32, i32, ptr, ...) @pg_log_generic(i32 noundef 3, i32 noundef 0, ptr noundef nonnull @.str.519, i32 noundef %20) #14
  br label %29

.thread:                                          ; preds = %22, %25
  %.131 = phi ptr [ %26, %25 ], [ %.02832, %22 ]
  %.sroa.4.0.insert.ext = shl i64 %17, 32
  %.sroa.0.0.insert.ext = and i64 %15, 4294967295
  %.sroa.0.0.insert.insert = or disjoint i64 %.sroa.4.0.insert.ext, %.sroa.0.0.insert.ext
  tail call void @recordExtensionMembership(i64 %.sroa.0.0.insert.insert, ptr noundef nonnull %.131) #14
  br label %29

29:                                               ; preds = %.thread, %28
  %.130 = phi ptr [ %.131, %.thread ], [ null, %28 ]
  %30 = add nuw nsw i32 %.033, 1
  %exitcond.not = icmp eq i32 %30, %9
  br i1 %exitcond.not, label %._crit_edge, label %.lr.ph, !llvm.loop !122

._crit_edge:                                      ; preds = %29, %5
  tail call void @PQclear(ptr noundef %8) #14
  tail call void @destroyPQExpBuffer(ptr noundef nonnull %6) #14
  br label %31

31:                                               ; preds = %3, %._crit_edge
  ret void
}